; Function Attrs: mustprogress nofree norecurse nosync nounwind willreturn memory(argmem: readwrite) uwtable
define noundef nonnull align 4 dereferenceable(64) ptr @_ZN32pxrInternal_v0_24__pxrReserved__10GfMatrix4f9SetRotateERKNS_10GfMatrix3fE(ptr noundef nonnull returned writeonly align 4 dereferenceable(64) initializes((0, 64)) %0, ptr noundef nonnull readonly align 4 captures(none) dereferenceable(36) %1) local_unnamed_addr #2 align 2 {
  %3 = load float, ptr %1, align 4
  store float %3, ptr %0, align 4
  %4 = getelementptr inbounds nuw i8, ptr %1, i64 4
  %5 = load float, ptr %4, align 4
  %6 = getelementptr inbounds nuw i8, ptr %0, i64 4
  store float %5, ptr %6, align 4
  %7 = getelementptr inbounds nuw i8, ptr %1, i64 8
  %8 = load float, ptr %7, align 4
  %9 = getelementptr inbounds nuw i8, ptr %0, i64 8
  store float %8, ptr %9, align 4
  %10 = getelementptr inbounds nuw i8, ptr %0, i64 12
  store float 0.000000e+00, ptr %10, align 4
  %11 = getelementptr inbounds nuw i8, ptr %1, i64 12
  %12 = load float, ptr %11, align 4
  %13 = getelementptr inbounds nuw i8, ptr %0, i64 16
  store float %12, ptr %13, align 4
  %14 = getelementptr inbounds nuw i8, ptr %1, i64 16
  %15 = load float, ptr %14, align 4
  %16 = getelementptr inbounds nuw i8, ptr %0, i64 20
  store float %15, ptr %16, align 4
  %17 = getelementptr inbounds nuw i8, ptr %1, i64 20
  %18 = load float, ptr %17, align 4
  %19 = getelementptr inbounds nuw i8, ptr %0, i64 24
  store float %18, ptr %19, align 4
  %20 = getelementptr inbounds nuw i8, ptr %0, i64 28
  store float 0.000000e+00, ptr %20, align 4
  %21 = getelementptr inbounds nuw i8, ptr %1, i64 24
  %22 = load float, ptr %21, align 4
  %23 = getelementptr inbounds nuw i8, ptr %0, i64 32
  store float %22, ptr %23, align 4
  %24 = getelementptr inbounds nuw i8, ptr %1, i64 28
  %25 = load float, ptr %24, align 4
  %26 = getelementptr inbounds nuw i8, ptr %0, i64 36
  store float %25, ptr %26, align 4
  %27 = getelementptr inbounds nuw i8, ptr %1, i64 32
  %28 = load float, ptr %27, align 4
  %29 = getelementptr inbounds nuw i8, ptr %0, i64 40
  store float %28, ptr %29, align 4
  %30 = getelementptr inbounds nuw i8, ptr %0, i64 44
  %31 = getelementptr inbounds nuw i8, ptr %0, i64 60
  tail call void @llvm.memset.p0.i64(ptr noundef nonnull align 4 dereferenceable(16) %30, i8 0, i64 16, i1 false)
  store float 1.000000e+00, ptr %31, align 4
  ret ptr %0
}